target datalayout = "e-m:e-p270:32:32-p271:32:32-p272:64:64-i64:64-i128:128-f80:128-n8:16:32:64-S128"
target triple = "x86_64-pc-linux-gnu"

@.str.12 = private unnamed_addr constant [7 x i8] c"t == 0\00", align 1
@.str.13 = private unnamed_addr constant [36 x i8] c"../cpython/Modules/_testcapi/time.c\00", align 1
@.str.14 = private unnamed_addr constant [9 x i8] c"res == 0\00", align 1
@__PRETTY_FUNCTION__.test_pytime_time = private unnamed_addr constant [51 x i8] c"PyObject *test_pytime_time(PyObject *, PyObject *)\00", align 1

; Function Attrs: nounwind uwtable
define internal ptr @pytime_as_float(i64 noundef %0) #0 {
  %2 = alloca i64, align 8
  store i64 %0, ptr %2, align 8, !tbaa !8
  %3 = load i64, ptr %2, align 8, !tbaa !8
  %4 = call double @PyTime_AsSecondsDouble(i64 noundef %3)
  %5 = call ptr @PyFloat_FromDouble(double noundef %4)
  ret ptr %5
}

; Function Attrs: nounwind uwtable
define internal ptr @test_pytime_time(ptr noundef %0, ptr noundef %1) #0 {
  %3 = alloca ptr, align 8
  %4 = alloca ptr, align 8
  %5 = alloca ptr, align 8
  %6 = alloca i64, align 8
  %7 = alloca i32, align 4
  %8 = alloca i32, align 4
  store ptr %0, ptr %4, align 8, !tbaa !3
  store ptr %1, ptr %5, align 8, !tbaa !3
  call void @llvm.lifetime.start.p0(i64 8, ptr %6) #5
  call void @llvm.lifetime.start.p0(i64 4, ptr %7) #5
  %9 = call i32 @PyTime_Time(ptr noundef %6)
  store i32 %9, ptr %7, align 4, !tbaa !12
  %10 = load i32, ptr %7, align 4, !tbaa !12
  %11 = icmp slt i32 %10, 0
  br i1 %11, label %12, label %19

12:                                               ; preds = %2
  %13 = load i64, ptr %6, align 8, !tbaa !8
  %14 = icmp eq i64 %13, 0
  br i1 %14, label %15, label %16

15:                                               ; preds = %12
  br label %18

16:                                               ; preds = %12
  call void @__assert_fail(ptr noundef @.str.12, ptr noundef @.str.13, i32 noundef 118, ptr noundef @__PRETTY_FUNCTION__.test_pytime_time) #6
  unreachable

17:                                               ; No predecessors!
  br label %18

18:                                               ; preds = %17, %15
  store ptr null, ptr %3, align 8
  store i32 1, ptr %8, align 4
  br label %28

19:                                               ; preds = %2
  %20 = load i32, ptr %7, align 4, !tbaa !12
  %21 = icmp eq i32 %20, 0
  br i1 %21, label %22, label %23

22:                                               ; preds = %19
  br label %25

23:                                               ; preds = %19
  call void @__assert_fail(ptr noundef @.str.14, ptr noundef @.str.13, i32 noundef 121, ptr noundef @__PRETTY_FUNCTION__.test_pytime_time) #6
  unreachable

24:                                               ; No predecessors!
  br label %25

25:                                               ; preds = %24, %22
  %26 = load i64, ptr %6, align 8, !tbaa !8
  %27 = call ptr @pytime_as_float(i64 noundef %26)
  store ptr %27, ptr %3, align 8
  store i32 1, ptr %8, align 4
  br label %28

28:                                               ; preds = %25, %18
  call void @llvm.lifetime.end.p0(i64 4, ptr %7) #5
  call void @llvm.lifetime.end.p0(i64 8, ptr %6) #5
  %29 = load ptr, ptr %3, align 8
  ret ptr %29
}